; Function Attrs: nounwind uwtable
define void @Abc_BufCreateEdges(ptr noundef readonly captures(none) %0, ptr noundef readonly captures(none) %1) local_unnamed_addr #2 {
  %3 = getelementptr i8, ptr %1, i64 20
  %.val16 = load i32, ptr %3, align 4
  %4 = and i32 %.val16, 15
  %5 = add nsw i32 %4, -5
  %narrow.i = icmp ult i32 %5, -2
  br i1 %narrow.i, label %6, label %9

6:                                                ; preds = %2
  %7 = getelementptr inbounds nuw i8, ptr %1, i64 56
  %8 = load ptr, ptr %7, align 8, !tbaa !40
  br label %9

9:                                                ; preds = %2, %6
  %10 = phi ptr [ %8, %6 ], [ null, %2 ]
  %11 = getelementptr inbounds nuw i8, ptr %0, i64 24
  %12 = load ptr, ptr %11, align 8, !tbaa !77
  %13 = getelementptr i8, ptr %1, i64 16
  %.val14 = load i32, ptr %13, align 8, !tbaa !34
  %14 = getelementptr inbounds nuw i8, ptr %0, i64 32
  %15 = load ptr, ptr %14, align 8, !tbaa !82
  %16 = getelementptr i8, ptr %15, i64 4
  %.val17 = load i32, ptr %16, align 4, !tbaa !50
  %17 = getelementptr i8, ptr %12, i64 8
  %.val15 = load ptr, ptr %17, align 8, !tbaa !45
  %18 = sext i32 %.val14 to i64
  %19 = getelementptr inbounds i32, ptr %.val15, i64 %18
  store i32 %.val17, ptr %19, align 4, !tbaa !33
  %20 = getelementptr i8, ptr %1, i64 28
  %.val18 = load i32, ptr %20, align 4, !tbaa !28
  %21 = icmp sgt i32 %.val18, 0
  br i1 %21, label %.lr.ph, label %._crit_edge

.lr.ph:                                           ; preds = %9
  %.not13 = icmp eq ptr %10, null
  %22 = getelementptr inbounds nuw i8, ptr %0, i64 84
  br i1 %.not13, label %.lr.ph.split.us, label %.lr.ph.split

.lr.ph.split.us:                                  ; preds = %.lr.ph, %Vec_IntPush.exit.us
  %.019.us = phi i32 [ %55, %Vec_IntPush.exit.us ], [ 0, %.lr.ph ]
  %23 = load ptr, ptr %14, align 8, !tbaa !82
  %24 = getelementptr inbounds nuw i8, ptr %23, i64 4
  %25 = load i32, ptr %24, align 4, !tbaa !50
  %26 = load i32, ptr %23, align 8, !tbaa !51
  %27 = icmp eq i32 %25, %26
  br i1 %27, label %28, label %.Vec_IntGrow.exit10_crit_edge.i.us

.Vec_IntGrow.exit10_crit_edge.i.us:               ; preds = %.lr.ph.split.us
  %.phi.trans.insert.i.us = getelementptr inbounds nuw i8, ptr %23, i64 8
  %.pre.i.us = load ptr, ptr %.phi.trans.insert.i.us, align 8, !tbaa !45
  br label %Vec_IntPush.exit.us

28:                                               ; preds = %.lr.ph.split.us
  %29 = icmp slt i32 %25, 16
  br i1 %29, label %42, label %30

30:                                               ; preds = %28
  %31 = shl nuw nsw i32 %25, 1
  %32 = getelementptr inbounds nuw i8, ptr %23, i64 8
  %33 = load ptr, ptr %32, align 8, !tbaa !45
  %.not9.i9.i.us = icmp eq ptr %33, null
  %34 = zext nneg i32 %31 to i64
  %35 = shl nuw nsw i64 %34, 2
  br i1 %.not9.i9.i.us, label %38, label %36

36:                                               ; preds = %30
  %37 = tail call ptr @realloc(ptr noundef nonnull %33, i64 noundef %35) #19
  br label %40

38:                                               ; preds = %30
  %39 = tail call noalias ptr @malloc(i64 noundef %35) #18
  br label %40

40:                                               ; preds = %38, %36
  %41 = phi ptr [ %37, %36 ], [ %39, %38 ]
  store ptr %41, ptr %32, align 8, !tbaa !45
  store i32 %31, ptr %23, align 8, !tbaa !51
  br label %Vec_IntPush.exit.us

42:                                               ; preds = %28
  %43 = getelementptr inbounds nuw i8, ptr %23, i64 8
  %44 = load ptr, ptr %43, align 8, !tbaa !45
  %.not9.i.i.us = icmp eq ptr %44, null
  br i1 %.not9.i.i.us, label %47, label %45

45:                                               ; preds = %42
  %46 = tail call dereferenceable_or_null(64) ptr @realloc(ptr noundef nonnull %44, i64 noundef 64) #19
  br label %Vec_IntGrow.exit.i.us

47:                                               ; preds = %42
  %48 = tail call noalias dereferenceable_or_null(64) ptr @malloc(i64 noundef 64) #18
  br label %Vec_IntGrow.exit.i.us

Vec_IntGrow.exit.i.us:                            ; preds = %47, %45
  %49 = phi ptr [ %46, %45 ], [ %48, %47 ]
  store ptr %49, ptr %43, align 8, !tbaa !45
  store i32 16, ptr %23, align 8, !tbaa !51
  br label %Vec_IntPush.exit.us

Vec_IntPush.exit.us:                              ; preds = %Vec_IntGrow.exit.i.us, %40, %.Vec_IntGrow.exit10_crit_edge.i.us
  %50 = phi ptr [ %.pre.i.us, %.Vec_IntGrow.exit10_crit_edge.i.us ], [ %41, %40 ], [ %49, %Vec_IntGrow.exit.i.us ]
  %51 = load i32, ptr %24, align 4, !tbaa !50
  %52 = add nsw i32 %51, 1
  store i32 %52, ptr %24, align 4, !tbaa !50
  %53 = sext i32 %51 to i64
  %54 = getelementptr inbounds i32, ptr %50, i64 %53
  store i32 0, ptr %54, align 4, !tbaa !33
  %55 = add nuw nsw i32 %.019.us, 1
  %.val.us = load i32, ptr %20, align 4, !tbaa !28
  %56 = icmp slt i32 %55, %.val.us
  br i1 %56, label %.lr.ph.split.us, label %._crit_edge, !llvm.loop !90

.lr.ph.split:                                     ; preds = %.lr.ph, %Vec_IntPush.exit
  %.019 = phi i32 [ %96, %Vec_IntPush.exit ], [ 0, %.lr.ph ]
  %57 = load ptr, ptr %14, align 8, !tbaa !82
  %58 = tail call float @Mio_GateReadPinDelay(ptr noundef nonnull %10, i32 noundef %.019) #17
  %59 = fpext float %58 to double
  %60 = fmul double %59, 1.000000e+03
  %61 = load float, ptr %22, align 4, !tbaa !91
  %62 = fpext float %61 to double
  %63 = fdiv double %60, %62
  %64 = fptosi double %63 to i32
  %65 = getelementptr inbounds nuw i8, ptr %57, i64 4
  %66 = load i32, ptr %65, align 4, !tbaa !50
  %67 = load i32, ptr %57, align 8, !tbaa !51
  %68 = icmp eq i32 %66, %67
  br i1 %68, label %69, label %.Vec_IntGrow.exit10_crit_edge.i

.Vec_IntGrow.exit10_crit_edge.i:                  ; preds = %.lr.ph.split
  %.phi.trans.insert.i = getelementptr inbounds nuw i8, ptr %57, i64 8
  %.pre.i = load ptr, ptr %.phi.trans.insert.i, align 8, !tbaa !45
  br label %Vec_IntPush.exit

69:                                               ; preds = %.lr.ph.split
  %70 = icmp slt i32 %66, 16
  br i1 %70, label %71, label %79

71:                                               ; preds = %69
  %72 = getelementptr inbounds nuw i8, ptr %57, i64 8
  %73 = load ptr, ptr %72, align 8, !tbaa !45
  %.not9.i.i = icmp eq ptr %73, null
  br i1 %.not9.i.i, label %76, label %74

74:                                               ; preds = %71
  %75 = tail call dereferenceable_or_null(64) ptr @realloc(ptr noundef nonnull %73, i64 noundef 64) #19
  br label %Vec_IntGrow.exit.i

76:                                               ; preds = %71
  %77 = tail call noalias dereferenceable_or_null(64) ptr @malloc(i64 noundef 64) #18
  br label %Vec_IntGrow.exit.i

Vec_IntGrow.exit.i:                               ; preds = %76, %74
  %78 = phi ptr [ %75, %74 ], [ %77, %76 ]
  store ptr %78, ptr %72, align 8, !tbaa !45
  store i32 16, ptr %57, align 8, !tbaa !51
  br label %Vec_IntPush.exit

79:                                               ; preds = %69
  %80 = shl nuw nsw i32 %66, 1
  %81 = getelementptr inbounds nuw i8, ptr %57, i64 8
  %82 = load ptr, ptr %81, align 8, !tbaa !45
  %.not9.i9.i = icmp eq ptr %82, null
  %83 = zext nneg i32 %80 to i64
  %84 = shl nuw nsw i64 %83, 2
  br i1 %.not9.i9.i, label %87, label %85

85:                                               ; preds = %79
  %86 = tail call ptr @realloc(ptr noundef nonnull %82, i64 noundef %84) #19
  br label %89

87:                                               ; preds = %79
  %88 = tail call noalias ptr @malloc(i64 noundef %84) #18
  br label %89

89:                                               ; preds = %87, %85
  %90 = phi ptr [ %86, %85 ], [ %88, %87 ]
  store ptr %90, ptr %81, align 8, !tbaa !45
  store i32 %80, ptr %57, align 8, !tbaa !51
  br label %Vec_IntPush.exit

Vec_IntPush.exit:                                 ; preds = %.Vec_IntGrow.exit10_crit_edge.i, %Vec_IntGrow.exit.i, %89
  %91 = phi ptr [ %.pre.i, %.Vec_IntGrow.exit10_crit_edge.i ], [ %90, %89 ], [ %78, %Vec_IntGrow.exit.i ]
  %92 = load i32, ptr %65, align 4, !tbaa !50
  %93 = add nsw i32 %92, 1
  store i32 %93, ptr %65, align 4, !tbaa !50
  %94 = sext i32 %92 to i64
  %95 = getelementptr inbounds i32, ptr %91, i64 %94
  store i32 %64, ptr %95, align 4, !tbaa !33
  %96 = add nuw nsw i32 %.019, 1
  %.val = load i32, ptr %20, align 4, !tbaa !28
  %97 = icmp slt i32 %96, %.val
  br i1 %97, label %.lr.ph.split, label %._crit_edge, !llvm.loop !90

._crit_edge:                                      ; preds = %Vec_IntPush.exit, %Vec_IntPush.exit.us, %9
  ret void
}